target datalayout = "e-m:e-p270:32:32-p271:32:32-p272:64:64-i64:64-i128:128-f80:128-n8:16:32:64-S128"
target triple = "x86_64-pc-linux-gnu"

%"class.icu_77::UnicodeString" = type { %"class.icu_77::Replaceable", %"union.icu_77::UnicodeString::StackBufferOrFields" }
%"class.icu_77::Replaceable" = type { %"class.icu_77::UObject" }
%"class.icu_77::UObject" = type { ptr }
%"union.icu_77::UnicodeString::StackBufferOrFields" = type { %struct.anon.0, [32 x i8] }
%struct.anon.0 = type { i16, i32, i32, ptr }
%"class.icu_77::SimpleDateFormat" = type { %"class.icu_77::DateFormat", %"class.icu_77::UnicodeString", %"class.icu_77::UnicodeString", %"class.icu_77::UnicodeString", %"class.icu_77::Locale", ptr, ptr, double, i8, i8, i8, i32, ptr, ptr, i8, ptr }
%"class.icu_77::DateFormat" = type { %"class.icu_77::Format", ptr, ptr, %"class.icu_77::EnumSet", i32 }
%"class.icu_77::Format" = type { %"class.icu_77::UObject", ptr, ptr }
%"class.icu_77::EnumSet" = type { i32 }
%"class.icu_77::Locale" = type <{ %"class.icu_77::UObject", [12 x i8], [6 x i8], [4 x i8], [2 x i8], i32, [4 x i8], ptr, [157 x i8], [3 x i8], ptr, i8, [7 x i8] }>

; Function Attrs: mustprogress uwtable
define void @_ZN6icu_7716SimpleDateFormat20setDateFormatSymbolsERKNS_17DateFormatSymbolsE(ptr noundef nonnull align 8 dereferenceable(528) %0, ptr noundef nonnull align 8 dereferenceable(976) %1) unnamed_addr #1 align 2 personality ptr @__gxx_personality_v0 {
  %3 = alloca ptr, align 8
  %4 = alloca ptr, align 8
  %5 = alloca ptr, align 8
  %6 = alloca i1, align 1
  %7 = alloca ptr, align 8
  %8 = alloca i32, align 4
  store ptr %0, ptr %3, align 8, !tbaa !23
  store ptr %1, ptr %4, align 8, !tbaa !97
  %9 = load ptr, ptr %3, align 8
  %10 = getelementptr inbounds nuw %"class.icu_77::SimpleDateFormat", ptr %9, i32 0, i32 5
  %11 = load ptr, ptr %10, align 8, !tbaa !65
  %12 = icmp eq ptr %11, null
  br i1 %12, label %14, label %13

13:                                               ; preds = %2
  call void @_ZN6icu_7717DateFormatSymbolsD1Ev(ptr noundef nonnull align 8 dereferenceable(976) %11) #12
  call void @_ZN6icu_777UMemorydlEPv(ptr noundef %11) #12
  br label %14

14:                                               ; preds = %13, %2
  %15 = call noundef ptr @_ZN6icu_777UMemorynwEm(i64 noundef 976) #12
  %16 = icmp eq ptr %15, null
  store i1 false, ptr %6, align 1
  br i1 %16, label %20, label %17

17:                                               ; preds = %14
  store ptr %15, ptr %5, align 8
  store i1 true, ptr %6, align 1
  %18 = load ptr, ptr %4, align 8, !tbaa !97
  invoke void @_ZN6icu_7717DateFormatSymbolsC1ERKS0_(ptr noundef nonnull align 8 dereferenceable(976) %15, ptr noundef nonnull align 8 dereferenceable(976) %18)
          to label %19 unwind label %23

19:                                               ; preds = %17
  br label %20

20:                                               ; preds = %19, %14
  %21 = phi ptr [ %15, %19 ], [ null, %14 ]
  %22 = getelementptr inbounds nuw %"class.icu_77::SimpleDateFormat", ptr %9, i32 0, i32 5
  store ptr %21, ptr %22, align 8, !tbaa !65
  ret void

23:                                               ; preds = %17
  %24 = landingpad { ptr, i32 }
          cleanup
  %25 = extractvalue { ptr, i32 } %24, 0
  store ptr %25, ptr %7, align 8
  %26 = extractvalue { ptr, i32 } %24, 1
  store i32 %26, ptr %8, align 4
  %27 = load i1, ptr %6, align 1
  br i1 %27, label %28, label %30

28:                                               ; preds = %23
  %29 = load ptr, ptr %5, align 8
  call void @_ZN6icu_777UMemorydlEPv(ptr noundef %29) #12
  br label %30

30:                                               ; preds = %28, %23
  br label %31

31:                                               ; preds = %30
  %32 = load ptr, ptr %7, align 8
  %33 = load i32, ptr %8, align 4
  %34 = insertvalue { ptr, i32 } poison, ptr %32, 0
  %35 = insertvalue { ptr, i32 } %34, i32 %33, 1
  resume { ptr, i32 } %35
}