; Function Attrs: mustprogress uwtable
define void @_ZN6icu_7716SimpleDateFormat20setDateFormatSymbolsERKNS_17DateFormatSymbolsE(ptr noundef nonnull align 8 captures(none) dereferenceable(528) %0, ptr noundef nonnull align 8 dereferenceable(976) %1) unnamed_addr #1 align 2 personality ptr @__gxx_personality_v0 {
  %3 = getelementptr inbounds nuw i8, ptr %0, i64 464
  %4 = load ptr, ptr %3, align 8, !tbaa !46
  %5 = icmp eq ptr %4, null
  br i1 %5, label %7, label %6

6:                                                ; preds = %2
  tail call void @_ZN6icu_7717DateFormatSymbolsD1Ev(ptr noundef nonnull align 8 dereferenceable(976) %4) #23
  tail call void @_ZN6icu_777UMemorydlEPv(ptr noundef nonnull %4) #23
  br label %7

7:                                                ; preds = %6, %2
  %8 = tail call noundef ptr @_ZN6icu_777UMemorynwEm(i64 noundef 976) #23
  %9 = icmp eq ptr %8, null
  br i1 %9, label %11, label %10

10:                                               ; preds = %7
  invoke void @_ZN6icu_7717DateFormatSymbolsC1ERKS0_(ptr noundef nonnull align 8 dereferenceable(976) %8, ptr noundef nonnull align 8 dereferenceable(976) %1)
          to label %11 unwind label %12

11:                                               ; preds = %10, %7
  store ptr %8, ptr %3, align 8, !tbaa !46
  ret void

12:                                               ; preds = %10
  %13 = landingpad { ptr, i32 }
          cleanup
  tail call void @_ZN6icu_777UMemorydlEPv(ptr noundef nonnull %8) #23
  resume { ptr, i32 } %13
}